target datalayout = "e-m:e-p270:32:32-p271:32:32-p272:64:64-i64:64-i128:128-f80:128-n8:16:32:64-S128"
target triple = "x86_64-pc-linux-gnu"

%struct.URLContext = type { ptr, ptr, ptr, ptr, i32, i32, i32, i32, %struct.AVIOInterruptCB, i64, ptr, ptr, i32 }
%struct.AVIOInterruptCB = type { ptr, ptr }
%struct.FTPContext = type { ptr, ptr, ptr, [1024 x i8], ptr, ptr, i32, i32, ptr, ptr, ptr, ptr, i64, i64, i32, ptr, i32, i32, i32, ptr, ptr, i64, i64, i32, ptr, ptr }

@.str.34 = private unnamed_addr constant [18 x i8] c"FTP write failed\0A\00", align 1
@ftp_store.stor_codes = internal constant [3 x i32] [i32 150, i32 125, i32 0], align 4
@.str.35 = private unnamed_addr constant [10 x i8] c"STOR %s\0D\0A\00", align 1

; Function Attrs: nounwind uwtable
define internal i32 @ftp_send_command(ptr noundef %0, ptr noundef %1, ptr noundef %2, ptr noundef %3) #0 {
  %5 = alloca i32, align 4
  %6 = alloca ptr, align 8
  %7 = alloca ptr, align 8
  %8 = alloca ptr, align 8
  %9 = alloca ptr, align 8
  %10 = alloca i32, align 4
  %11 = alloca i32, align 4
  store ptr %0, ptr %6, align 8, !tbaa !19
  store ptr %1, ptr %7, align 8, !tbaa !9
  store ptr %2, ptr %8, align 8, !tbaa !64
  store ptr %3, ptr %9, align 8, !tbaa !62
  call void @llvm.lifetime.start.p0(i64 4, ptr %10) #9
  br label %12

12:                                               ; preds = %4
  br label %13

13:                                               ; preds = %12
  br label %14

14:                                               ; preds = %13
  %15 = load ptr, ptr %9, align 8, !tbaa !62
  %16 = icmp ne ptr %15, null
  br i1 %16, label %17, label %19

17:                                               ; preds = %14
  %18 = load ptr, ptr %9, align 8, !tbaa !62
  store ptr null, ptr %18, align 8, !tbaa !9
  br label %19

19:                                               ; preds = %17, %14
  %20 = load ptr, ptr %6, align 8, !tbaa !19
  %21 = getelementptr inbounds nuw %struct.FTPContext, ptr %20, i32 0, i32 1
  %22 = load ptr, ptr %21, align 8, !tbaa !56
  %23 = icmp ne ptr %22, null
  br i1 %23, label %25, label %24

24:                                               ; preds = %19
  store i32 -5, ptr %5, align 4
  store i32 1, ptr %11, align 4
  br label %50

25:                                               ; preds = %19
  %26 = load ptr, ptr %6, align 8, !tbaa !19
  %27 = getelementptr inbounds nuw %struct.FTPContext, ptr %26, i32 0, i32 1
  %28 = load ptr, ptr %27, align 8, !tbaa !56
  %29 = load ptr, ptr %7, align 8, !tbaa !9
  %30 = load ptr, ptr %7, align 8, !tbaa !9
  %31 = call i64 @strlen(ptr noundef %30) #10
  %32 = trunc i64 %31 to i32
  %33 = call i32 @ffurl_write(ptr noundef %28, ptr noundef %29, i32 noundef %32)
  store i32 %33, ptr %10, align 4, !tbaa !11
  %34 = icmp slt i32 %33, 0
  br i1 %34, label %35, label %37

35:                                               ; preds = %25
  %36 = load i32, ptr %10, align 4, !tbaa !11
  store i32 %36, ptr %5, align 4
  store i32 1, ptr %11, align 4
  br label %50

37:                                               ; preds = %25
  %38 = load i32, ptr %10, align 4, !tbaa !11
  %39 = icmp ne i32 %38, 0
  br i1 %39, label %41, label %40

40:                                               ; preds = %37
  store i32 -1, ptr %5, align 4
  store i32 1, ptr %11, align 4
  br label %50

41:                                               ; preds = %37
  %42 = load ptr, ptr %8, align 8, !tbaa !64
  %43 = icmp ne ptr %42, null
  br i1 %43, label %44, label %49

44:                                               ; preds = %41
  %45 = load ptr, ptr %6, align 8, !tbaa !19
  %46 = load ptr, ptr %9, align 8, !tbaa !62
  %47 = load ptr, ptr %8, align 8, !tbaa !64
  %48 = call i32 @ftp_status(ptr noundef %45, ptr noundef %46, ptr noundef %47)
  store i32 %48, ptr %5, align 4
  store i32 1, ptr %11, align 4
  br label %50

49:                                               ; preds = %41
  store i32 0, ptr %5, align 4
  store i32 1, ptr %11, align 4
  br label %50

50:                                               ; preds = %49, %44, %40, %35, %24
  call void @llvm.lifetime.end.p0(i64 4, ptr %10) #9
  %51 = load i32, ptr %5, align 4
  ret i32 %51
}

; Function Attrs: inlinehint nounwind uwtable
define internal i32 @ffurl_write(ptr noundef %0, ptr noundef %1, i32 noundef %2) #3 {
  %4 = alloca ptr, align 8
  %5 = alloca ptr, align 8
  %6 = alloca i32, align 4
  store ptr %0, ptr %4, align 8, !tbaa !4
  store ptr %1, ptr %5, align 8, !tbaa !9
  store i32 %2, ptr %6, align 4, !tbaa !11
  %7 = load ptr, ptr %4, align 8, !tbaa !4
  %8 = load ptr, ptr %5, align 8, !tbaa !9
  %9 = load i32, ptr %6, align 4, !tbaa !11
  %10 = call i32 @ffurl_write2(ptr noundef %7, ptr noundef %8, i32 noundef %9)
  ret i32 %10
}

; Function Attrs: nounwind uwtable
define internal i32 @ftp_store(ptr noundef %0) #0 {
  %2 = alloca i32, align 4
  %3 = alloca ptr, align 8
  %4 = alloca [1024 x i8], align 16
  %5 = alloca i32, align 4
  %6 = alloca i32, align 4
  %7 = alloca i32, align 4
  store ptr %0, ptr %3, align 8, !tbaa !19
  call void @llvm.lifetime.start.p0(i64 1024, ptr %4) #9
  call void @llvm.lifetime.start.p0(i64 4, ptr %5) #9
  call void @llvm.lifetime.start.p0(i64 4, ptr %6) #9
  %8 = getelementptr inbounds [1024 x i8], ptr %4, i64 0, i64 0
  %9 = load ptr, ptr %3, align 8, !tbaa !19
  %10 = getelementptr inbounds nuw %struct.FTPContext, ptr %9, i32 0, i32 11
  %11 = load ptr, ptr %10, align 8, !tbaa !44
  %12 = call i32 (ptr, i64, ptr, ...) @snprintf(ptr noundef %8, i64 noundef 1024, ptr noundef @.str.35, ptr noundef %11) #9
  store i32 %12, ptr %6, align 4, !tbaa !11
  %13 = load i32, ptr %6, align 4, !tbaa !11
  %14 = sext i32 %13 to i64
  %15 = icmp uge i64 %14, 1024
  br i1 %15, label %16, label %17

16:                                               ; preds = %1
  store i32 -38, ptr %2, align 4
  store i32 1, ptr %7, align 4
  br label %30

17:                                               ; preds = %1
  %18 = load ptr, ptr %3, align 8, !tbaa !19
  %19 = getelementptr inbounds [1024 x i8], ptr %4, i64 0, i64 0
  %20 = call i32 @ftp_send_command(ptr noundef %18, ptr noundef %19, ptr noundef @ftp_store.stor_codes, ptr noundef null)
  store i32 %20, ptr %5, align 4, !tbaa !11
  %21 = load i32, ptr %5, align 4, !tbaa !11
  %22 = icmp ne i32 %21, 125
  br i1 %22, label %23, label %27

23:                                               ; preds = %17
  %24 = load i32, ptr %5, align 4, !tbaa !11
  %25 = icmp ne i32 %24, 150
  br i1 %25, label %26, label %27

26:                                               ; preds = %23
  store i32 -5, ptr %2, align 4
  store i32 1, ptr %7, align 4
  br label %30

27:                                               ; preds = %23, %17
  %28 = load ptr, ptr %3, align 8, !tbaa !19
  %29 = getelementptr inbounds nuw %struct.FTPContext, ptr %28, i32 0, i32 17
  store i32 3, ptr %29, align 4, !tbaa !23
  store i32 0, ptr %2, align 4
  store i32 1, ptr %7, align 4
  br label %30

30:                                               ; preds = %27, %26, %16
  call void @llvm.lifetime.end.p0(i64 4, ptr %6) #9
  call void @llvm.lifetime.end.p0(i64 4, ptr %5) #9
  call void @llvm.lifetime.end.p0(i64 1024, ptr %4) #9
  %31 = load i32, ptr %2, align 4
  ret i32 %31
}

; Function Attrs: nounwind uwtable
define internal i32 @ftp_write(ptr noundef %0, ptr noundef %1, i32 noundef %2) #0 {
  %4 = alloca i32, align 4
  %5 = alloca ptr, align 8
  %6 = alloca ptr, align 8
  %7 = alloca i32, align 4
  %8 = alloca i32, align 4
  %9 = alloca ptr, align 8
  %10 = alloca i32, align 4
  %11 = alloca i32, align 4
  store ptr %0, ptr %5, align 8, !tbaa !4
  store ptr %1, ptr %6, align 8, !tbaa !9
  store i32 %2, ptr %7, align 4, !tbaa !11
  call void @llvm.lifetime.start.p0(i64 4, ptr %8) #9
  call void @llvm.lifetime.start.p0(i64 8, ptr %9) #9
  %12 = load ptr, ptr %5, align 8, !tbaa !4
  %13 = getelementptr inbounds nuw %struct.URLContext, ptr %12, i32 0, i32 2
  %14 = load ptr, ptr %13, align 8, !tbaa !13
  store ptr %14, ptr %9, align 8, !tbaa !19
  call void @llvm.lifetime.start.p0(i64 4, ptr %10) #9
  br label %15

15:                                               ; preds = %3
  br label %16

16:                                               ; preds = %15
  br label %17

17:                                               ; preds = %16
  %18 = load ptr, ptr %9, align 8, !tbaa !19
  %19 = getelementptr inbounds nuw %struct.FTPContext, ptr %18, i32 0, i32 17
  %20 = load i32, ptr %19, align 4, !tbaa !23
  %21 = icmp eq i32 %20, 5
  br i1 %21, label %22, label %29

22:                                               ; preds = %17
  %23 = load ptr, ptr %5, align 8, !tbaa !4
  %24 = call i32 @ftp_connect_data_connection(ptr noundef %23)
  store i32 %24, ptr %8, align 4, !tbaa !11
  %25 = icmp slt i32 %24, 0
  br i1 %25, label %26, label %28

26:                                               ; preds = %22
  %27 = load i32, ptr %8, align 4, !tbaa !11
  store i32 %27, ptr %4, align 4
  store i32 1, ptr %11, align 4
  br label %90

28:                                               ; preds = %22
  br label %29

29:                                               ; preds = %28, %17
  %30 = load ptr, ptr %9, align 8, !tbaa !19
  %31 = getelementptr inbounds nuw %struct.FTPContext, ptr %30, i32 0, i32 17
  %32 = load i32, ptr %31, align 4, !tbaa !23
  %33 = icmp eq i32 %32, 1
  br i1 %33, label %34, label %41

34:                                               ; preds = %29
  %35 = load ptr, ptr %9, align 8, !tbaa !19
  %36 = call i32 @ftp_store(ptr noundef %35)
  store i32 %36, ptr %8, align 4, !tbaa !11
  %37 = icmp slt i32 %36, 0
  br i1 %37, label %38, label %40

38:                                               ; preds = %34
  %39 = load i32, ptr %8, align 4, !tbaa !11
  store i32 %39, ptr %4, align 4
  store i32 1, ptr %11, align 4
  br label %90

40:                                               ; preds = %34
  br label %41

41:                                               ; preds = %40, %29
  %42 = load ptr, ptr %9, align 8, !tbaa !19
  %43 = getelementptr inbounds nuw %struct.FTPContext, ptr %42, i32 0, i32 2
  %44 = load ptr, ptr %43, align 8, !tbaa !24
  %45 = icmp ne ptr %44, null
  br i1 %45, label %46, label %88

46:                                               ; preds = %41
  %47 = load ptr, ptr %9, align 8, !tbaa !19
  %48 = getelementptr inbounds nuw %struct.FTPContext, ptr %47, i32 0, i32 17
  %49 = load i32, ptr %48, align 4, !tbaa !23
  %50 = icmp eq i32 %49, 3
  br i1 %50, label %51, label %88

51:                                               ; preds = %46
  %52 = load ptr, ptr %9, align 8, !tbaa !19
  %53 = getelementptr inbounds nuw %struct.FTPContext, ptr %52, i32 0, i32 2
  %54 = load ptr, ptr %53, align 8, !tbaa !24
  %55 = load ptr, ptr %6, align 8, !tbaa !9
  %56 = load i32, ptr %7, align 4, !tbaa !11
  %57 = call i32 @ffurl_write(ptr noundef %54, ptr noundef %55, i32 noundef %56)
  store i32 %57, ptr %10, align 4, !tbaa !11
  %58 = load i32, ptr %10, align 4, !tbaa !11
  %59 = icmp sgt i32 %58, 0
  br i1 %59, label %60, label %86

60:                                               ; preds = %51
  %61 = load i32, ptr %10, align 4, !tbaa !11
  %62 = sext i32 %61 to i64
  %63 = load ptr, ptr %9, align 8, !tbaa !19
  %64 = getelementptr inbounds nuw %struct.FTPContext, ptr %63, i32 0, i32 13
  %65 = load i64, ptr %64, align 8, !tbaa !25
  %66 = add nsw i64 %65, %62
  store i64 %66, ptr %64, align 8, !tbaa !25
  %67 = load ptr, ptr %9, align 8, !tbaa !19
  %68 = getelementptr inbounds nuw %struct.FTPContext, ptr %67, i32 0, i32 12
  %69 = load i64, ptr %68, align 8, !tbaa !26
  %70 = load ptr, ptr %9, align 8, !tbaa !19
  %71 = getelementptr inbounds nuw %struct.FTPContext, ptr %70, i32 0, i32 13
  %72 = load i64, ptr %71, align 8, !tbaa !25
  %73 = icmp sgt i64 %69, %72
  br i1 %73, label %74, label %78

74:                                               ; preds = %60
  %75 = load ptr, ptr %9, align 8, !tbaa !19
  %76 = getelementptr inbounds nuw %struct.FTPContext, ptr %75, i32 0, i32 12
  %77 = load i64, ptr %76, align 8, !tbaa !26
  br label %82

78:                                               ; preds = %60
  %79 = load ptr, ptr %9, align 8, !tbaa !19
  %80 = getelementptr inbounds nuw %struct.FTPContext, ptr %79, i32 0, i32 13
  %81 = load i64, ptr %80, align 8, !tbaa !25
  br label %82

82:                                               ; preds = %78, %74
  %83 = phi i64 [ %77, %74 ], [ %81, %78 ]
  %84 = load ptr, ptr %9, align 8, !tbaa !19
  %85 = getelementptr inbounds nuw %struct.FTPContext, ptr %84, i32 0, i32 12
  store i64 %83, ptr %85, align 8, !tbaa !26
  br label %86

86:                                               ; preds = %82, %51
  %87 = load i32, ptr %10, align 4, !tbaa !11
  store i32 %87, ptr %4, align 4
  store i32 1, ptr %11, align 4
  br label %90

88:                                               ; preds = %46, %41
  %89 = load ptr, ptr %5, align 8, !tbaa !4
  call void (ptr, i32, ptr, ...) @av_log(ptr noundef %89, i32 noundef 16, ptr noundef @.str.34)
  store i32 -5, ptr %4, align 4
  store i32 1, ptr %11, align 4
  br label %90

90:                                               ; preds = %88, %86, %38, %26
  call void @llvm.lifetime.end.p0(i64 4, ptr %10) #9
  call void @llvm.lifetime.end.p0(i64 8, ptr %9) #9
  call void @llvm.lifetime.end.p0(i64 4, ptr %8) #9
  %91 = load i32, ptr %4, align 4
  ret i32 %91
}