; Function Attrs: nounwind uwtable
define internal i32 @ftp_write(ptr noundef %0, ptr noundef %1, i32 noundef %2) #0 {
  %4 = alloca [1024 x i8], align 16
  %5 = getelementptr inbounds nuw i8, ptr %0, i64 16
  %6 = load ptr, ptr %5, align 8, !tbaa !4
  %7 = getelementptr inbounds nuw i8, ptr %6, i64 1140
  %8 = load i32, ptr %7, align 4, !tbaa !23
  %9 = icmp eq i32 %8, 5
  br i1 %9, label %10, label %13

10:                                               ; preds = %3
  %11 = tail call fastcc i32 @ftp_connect_data_connection(ptr noundef nonnull %0)
  %12 = icmp slt i32 %11, 0
  br i1 %12, label %49, label %thread-pre-split

thread-pre-split:                                 ; preds = %10
  %.pr = load i32, ptr %7, align 4, !tbaa !23
  br label %13

13:                                               ; preds = %thread-pre-split, %3
  %14 = phi i32 [ %.pr, %thread-pre-split ], [ %8, %3 ]
  %15 = icmp eq i32 %14, 1
  br i1 %15, label %16, label %32

16:                                               ; preds = %13
  call void @llvm.lifetime.start.p0(i64 1024, ptr nonnull %4) #10
  %17 = getelementptr inbounds nuw i8, ptr %6, i64 1096
  %18 = load ptr, ptr %17, align 8, !tbaa !19
  %19 = call i32 (ptr, i64, ptr, ...) @snprintf(ptr noundef nonnull dereferenceable(1) %4, i64 noundef 1024, ptr noundef nonnull @.str.35, ptr noundef %18) #10
  %20 = icmp ugt i32 %19, 1023
  br i1 %20, label %ftp_store.exit.thread, label %21

21:                                               ; preds = %16
  %22 = getelementptr inbounds nuw i8, ptr %6, i64 8
  %23 = load ptr, ptr %22, align 8, !tbaa !15
  %.not16.i.i = icmp eq ptr %23, null
  br i1 %.not16.i.i, label %ftp_store.exit.thread, label %24

24:                                               ; preds = %21
  %25 = call i64 @strlen(ptr noundef nonnull dereferenceable(1) %4) #11
  %26 = trunc i64 %25 to i32
  %27 = call i32 @ffurl_write2(ptr noundef nonnull %23, ptr noundef nonnull %4, i32 noundef %26) #10
  %28 = icmp slt i32 %27, 0
  br i1 %28, label %ftp_send_command.exit.i, label %29

29:                                               ; preds = %24
  %.not17.i.i = icmp eq i32 %27, 0
  br i1 %.not17.i.i, label %ftp_store.exit.thread, label %30

30:                                               ; preds = %29
  %31 = call fastcc i32 @ftp_status(ptr noundef nonnull %6, ptr noundef null, ptr noundef nonnull @ftp_store.stor_codes)
  br label %ftp_send_command.exit.i

ftp_send_command.exit.i:                          ; preds = %30, %24
  %.0.i.i = phi i32 [ %31, %30 ], [ %27, %24 ]
  switch i32 %.0.i.i, label %ftp_store.exit.thread [
    i32 150, label %.thread
    i32 125, label %.thread
  ]

ftp_store.exit.thread:                            ; preds = %16, %ftp_send_command.exit.i, %21, %29
  %.0.i.ph = phi i32 [ -5, %29 ], [ -5, %21 ], [ -5, %ftp_send_command.exit.i ], [ -38, %16 ]
  call void @llvm.lifetime.end.p0(i64 1024, ptr nonnull %4) #10
  br label %49

32:                                               ; preds = %13
  %33 = getelementptr inbounds nuw i8, ptr %6, i64 16
  %34 = load ptr, ptr %33, align 8, !tbaa !24
  %.not = icmp ne ptr %34, null
  %35 = icmp eq i32 %14, 3
  %or.cond = and i1 %.not, %35
  br i1 %or.cond, label %.thread30, label %48

.thread:                                          ; preds = %ftp_send_command.exit.i, %ftp_send_command.exit.i
  store i32 3, ptr %7, align 4, !tbaa !23
  call void @llvm.lifetime.end.p0(i64 1024, ptr nonnull %4) #10
  %36 = getelementptr inbounds nuw i8, ptr %6, i64 16
  %37 = load ptr, ptr %36, align 8, !tbaa !24
  %.not29 = icmp eq ptr %37, null
  br i1 %.not29, label %48, label %.thread30

.thread30:                                        ; preds = %32, %.thread
  %38 = phi ptr [ %37, %.thread ], [ %34, %32 ]
  %39 = call i32 @ffurl_write2(ptr noundef nonnull %38, ptr noundef %1, i32 noundef %2) #10
  %40 = icmp sgt i32 %39, 0
  br i1 %40, label %41, label %49

41:                                               ; preds = %.thread30
  %42 = zext nneg i32 %39 to i64
  %43 = getelementptr inbounds nuw i8, ptr %6, i64 1112
  %44 = load i64, ptr %43, align 8, !tbaa !25
  %45 = add nsw i64 %44, %42
  store i64 %45, ptr %43, align 8, !tbaa !25
  %46 = getelementptr inbounds nuw i8, ptr %6, i64 1104
  %47 = load i64, ptr %46, align 8, !tbaa !21
  %. = call i64 @llvm.smax.i64(i64 %47, i64 %45)
  store i64 %., ptr %46, align 8, !tbaa !21
  br label %49

48:                                               ; preds = %.thread, %32
  call void (ptr, i32, ptr, ...) @av_log(ptr noundef nonnull %0, i32 noundef 16, ptr noundef nonnull @.str.34) #10
  br label %49

49:                                               ; preds = %ftp_store.exit.thread, %.thread30, %41, %10, %48
  %.0 = phi i32 [ -5, %48 ], [ %11, %10 ], [ %39, %41 ], [ %39, %.thread30 ], [ %.0.i.ph, %ftp_store.exit.thread ]
  ret i32 %.0
}